; Function Attrs: uwtable
define range(i32 -4, 1) i32 @faiss_index_factory(ptr noundef writeonly captures(none) %0, i32 noundef %1, ptr noundef %2, i32 noundef %3) local_unnamed_addr #3 personality ptr @__gxx_personality_v0 {
  %5 = alloca %"class.std::__exception_ptr::exception_ptr", align 8
  %6 = alloca %"class.std::__exception_ptr::exception_ptr", align 8
  %7 = alloca %"class.std::__exception_ptr::exception_ptr", align 8
  %8 = alloca %"class.std::__exception_ptr::exception_ptr", align 8
  %9 = alloca %"class.std::runtime_error", align 8
  %10 = alloca %"class.std::__exception_ptr::exception_ptr", align 8
  %11 = alloca %"class.std::exception", align 8
  %12 = alloca %"class.std::__exception_ptr::exception_ptr", align 8
  %13 = alloca %"class.faiss::FaissException", align 8
  %14 = invoke noundef ptr @_ZN5faiss13index_factoryEiPKcNS_10MetricTypeE(i32 noundef %1, ptr noundef %2, i32 noundef %3)
          to label %15 unwind label %16

15:                                               ; preds = %4
  store ptr %14, ptr %0, align 8, !tbaa !3
  br label %51

16:                                               ; preds = %4
  %17 = landingpad { ptr, i32 }
          catch ptr @_ZTIN5faiss14FaissExceptionE
          catch ptr @_ZTISt9exception
          catch ptr null
  %18 = extractvalue { ptr, i32 } %17, 0
  %19 = extractvalue { ptr, i32 } %17, 1
  %20 = tail call i32 @llvm.eh.typeid.for.p0(ptr nonnull @_ZTIN5faiss14FaissExceptionE) #16
  %21 = icmp eq i32 %19, %20
  br i1 %21, label %22, label %30

22:                                               ; preds = %16
  %23 = tail call ptr @__cxa_begin_catch(ptr %18) #16
  call void @llvm.lifetime.start.p0(i64 8, ptr nonnull %12) #16
  invoke void @_ZN5faiss14FaissExceptionC2ERKS0_(ptr noundef nonnull align 8 dereferenceable(40) %13, ptr noundef nonnull align 8 dereferenceable(40) %23)
          to label %24 unwind label %49

24:                                               ; preds = %22
  call void @_ZSt18make_exception_ptrIN5faiss14FaissExceptionEENSt15__exception_ptr13exception_ptrET_(ptr dead_on_unwind nonnull writable sret(%"class.std::__exception_ptr::exception_ptr") align 8 %12, ptr noundef nonnull %13) #16
  %.not.i = icmp eq ptr @_ZTH20faiss_last_exception, null
  br i1 %.not.i, label %_ZTW20faiss_last_exception.exit, label %25

25:                                               ; preds = %24
  call void @_ZTH20faiss_last_exception()
  br label %_ZTW20faiss_last_exception.exit

_ZTW20faiss_last_exception.exit:                  ; preds = %24, %25
  %26 = call noundef align 8 ptr @llvm.threadlocal.address.p0(ptr align 8 @faiss_last_exception)
  call void @llvm.lifetime.start.p0(i64 8, ptr nonnull %7) #16
  %27 = load ptr, ptr %12, align 8, !tbaa !8
  store ptr null, ptr %12, align 8, !tbaa !8
  %28 = load ptr, ptr %26, align 8, !tbaa !8
  store ptr %28, ptr %7, align 8, !tbaa !8
  store ptr %27, ptr %26, align 8, !tbaa !8
  %.not.i.i = icmp eq ptr %28, null
  br i1 %.not.i.i, label %_ZNSt15__exception_ptr13exception_ptraSEOS0_.exit.thread, label %_ZNSt15__exception_ptr13exception_ptraSEOS0_.exit

_ZNSt15__exception_ptr13exception_ptraSEOS0_.exit.thread: ; preds = %_ZTW20faiss_last_exception.exit
  call void @llvm.lifetime.end.p0(i64 8, ptr nonnull %7) #16
  br label %_ZNSt15__exception_ptr13exception_ptrD2Ev.exit

_ZNSt15__exception_ptr13exception_ptraSEOS0_.exit: ; preds = %_ZTW20faiss_last_exception.exit
  call void @_ZNSt15__exception_ptr13exception_ptr10_M_releaseEv(ptr noundef nonnull align 8 dereferenceable(8) %7) #16
  %.pr = load ptr, ptr %12, align 8, !tbaa !8
  call void @llvm.lifetime.end.p0(i64 8, ptr nonnull %7) #16
  %.not.i16 = icmp eq ptr %.pr, null
  br i1 %.not.i16, label %_ZNSt15__exception_ptr13exception_ptrD2Ev.exit, label %29

29:                                               ; preds = %_ZNSt15__exception_ptr13exception_ptraSEOS0_.exit
  call void @_ZNSt15__exception_ptr13exception_ptr10_M_releaseEv(ptr noundef nonnull align 8 dereferenceable(8) %12) #16
  br label %_ZNSt15__exception_ptr13exception_ptrD2Ev.exit

_ZNSt15__exception_ptr13exception_ptrD2Ev.exit:   ; preds = %_ZNSt15__exception_ptr13exception_ptraSEOS0_.exit.thread, %_ZNSt15__exception_ptr13exception_ptraSEOS0_.exit, %29
  call void @_ZN5faiss14FaissExceptionD2Ev(ptr noundef nonnull align 8 dereferenceable(40) %13) #16
  call void @llvm.lifetime.end.p0(i64 8, ptr nonnull %12) #16
  call void @__cxa_end_catch()
  br label %51

30:                                               ; preds = %16
  %31 = tail call i32 @llvm.eh.typeid.for.p0(ptr nonnull @_ZTISt9exception) #16
  %32 = icmp eq i32 %19, %31
  %33 = tail call ptr @__cxa_begin_catch(ptr %18) #16
  br i1 %32, label %34, label %40

34:                                               ; preds = %30
  call void @llvm.lifetime.start.p0(i64 8, ptr nonnull %10) #16
  store ptr getelementptr inbounds nuw inrange(-16, 24) (i8, ptr @_ZTVSt9exception, i64 16), ptr %11, align 8, !tbaa !10
  call void @_ZSt18make_exception_ptrISt9exceptionENSt15__exception_ptr13exception_ptrET_(ptr dead_on_unwind nonnull writable sret(%"class.std::__exception_ptr::exception_ptr") align 8 %10, ptr noundef nonnull %11) #16
  %.not.i17 = icmp eq ptr @_ZTH20faiss_last_exception, null
  br i1 %.not.i17, label %_ZTW20faiss_last_exception.exit18, label %35

35:                                               ; preds = %34
  call void @_ZTH20faiss_last_exception()
  br label %_ZTW20faiss_last_exception.exit18

_ZTW20faiss_last_exception.exit18:                ; preds = %34, %35
  %36 = call noundef align 8 ptr @llvm.threadlocal.address.p0(ptr align 8 @faiss_last_exception)
  call void @llvm.lifetime.start.p0(i64 8, ptr nonnull %6) #16
  %37 = load ptr, ptr %10, align 8, !tbaa !8
  store ptr null, ptr %10, align 8, !tbaa !8
  %38 = load ptr, ptr %36, align 8, !tbaa !8
  store ptr %38, ptr %6, align 8, !tbaa !8
  store ptr %37, ptr %36, align 8, !tbaa !8
  %.not.i.i19 = icmp eq ptr %38, null
  br i1 %.not.i.i19, label %_ZNSt15__exception_ptr13exception_ptraSEOS0_.exit20.thread, label %_ZNSt15__exception_ptr13exception_ptraSEOS0_.exit20

_ZNSt15__exception_ptr13exception_ptraSEOS0_.exit20.thread: ; preds = %_ZTW20faiss_last_exception.exit18
  call void @llvm.lifetime.end.p0(i64 8, ptr nonnull %6) #16
  br label %_ZNSt15__exception_ptr13exception_ptrD2Ev.exit22

_ZNSt15__exception_ptr13exception_ptraSEOS0_.exit20: ; preds = %_ZTW20faiss_last_exception.exit18
  call void @_ZNSt15__exception_ptr13exception_ptr10_M_releaseEv(ptr noundef nonnull align 8 dereferenceable(8) %6) #16
  %.pr30 = load ptr, ptr %10, align 8, !tbaa !8
  call void @llvm.lifetime.end.p0(i64 8, ptr nonnull %6) #16
  %.not.i21 = icmp eq ptr %.pr30, null
  br i1 %.not.i21, label %_ZNSt15__exception_ptr13exception_ptrD2Ev.exit22, label %39

39:                                               ; preds = %_ZNSt15__exception_ptr13exception_ptraSEOS0_.exit20
  call void @_ZNSt15__exception_ptr13exception_ptr10_M_releaseEv(ptr noundef nonnull align 8 dereferenceable(8) %10) #16
  br label %_ZNSt15__exception_ptr13exception_ptrD2Ev.exit22

_ZNSt15__exception_ptr13exception_ptrD2Ev.exit22: ; preds = %_ZNSt15__exception_ptr13exception_ptraSEOS0_.exit20.thread, %_ZNSt15__exception_ptr13exception_ptraSEOS0_.exit20, %39
  call void @_ZNSt9exceptionD1Ev(ptr noundef nonnull align 8 dereferenceable(8) %11) #16
  call void @llvm.lifetime.end.p0(i64 8, ptr nonnull %10) #16
  call void @__cxa_end_catch()
  br label %51

40:                                               ; preds = %30
  call void @llvm.lifetime.start.p0(i64 8, ptr nonnull %8) #16
  invoke void @_ZNSt13runtime_errorC1EPKc(ptr noundef nonnull align 8 dereferenceable(16) %9, ptr noundef nonnull @.str)
          to label %41 unwind label %47

41:                                               ; preds = %40
  call void @_ZSt18make_exception_ptrISt13runtime_errorENSt15__exception_ptr13exception_ptrET_(ptr dead_on_unwind nonnull writable sret(%"class.std::__exception_ptr::exception_ptr") align 8 %8, ptr noundef nonnull %9) #16
  %.not.i23 = icmp eq ptr @_ZTH20faiss_last_exception, null
  br i1 %.not.i23, label %_ZTW20faiss_last_exception.exit24, label %42

42:                                               ; preds = %41
  call void @_ZTH20faiss_last_exception()
  br label %_ZTW20faiss_last_exception.exit24

_ZTW20faiss_last_exception.exit24:                ; preds = %41, %42
  %43 = call noundef align 8 ptr @llvm.threadlocal.address.p0(ptr align 8 @faiss_last_exception)
  call void @llvm.lifetime.start.p0(i64 8, ptr nonnull %5) #16
  %44 = load ptr, ptr %8, align 8, !tbaa !8
  store ptr null, ptr %8, align 8, !tbaa !8
  %45 = load ptr, ptr %43, align 8, !tbaa !8
  store ptr %45, ptr %5, align 8, !tbaa !8
  store ptr %44, ptr %43, align 8, !tbaa !8
  %.not.i.i25 = icmp eq ptr %45, null
  br i1 %.not.i.i25, label %_ZNSt15__exception_ptr13exception_ptraSEOS0_.exit26.thread, label %_ZNSt15__exception_ptr13exception_ptraSEOS0_.exit26

_ZNSt15__exception_ptr13exception_ptraSEOS0_.exit26.thread: ; preds = %_ZTW20faiss_last_exception.exit24
  call void @llvm.lifetime.end.p0(i64 8, ptr nonnull %5) #16
  br label %_ZNSt15__exception_ptr13exception_ptrD2Ev.exit28

_ZNSt15__exception_ptr13exception_ptraSEOS0_.exit26: ; preds = %_ZTW20faiss_last_exception.exit24
  call void @_ZNSt15__exception_ptr13exception_ptr10_M_releaseEv(ptr noundef nonnull align 8 dereferenceable(8) %5) #16
  %.pr32 = load ptr, ptr %8, align 8, !tbaa !8
  call void @llvm.lifetime.end.p0(i64 8, ptr nonnull %5) #16
  %.not.i27 = icmp eq ptr %.pr32, null
  br i1 %.not.i27, label %_ZNSt15__exception_ptr13exception_ptrD2Ev.exit28, label %46

46:                                               ; preds = %_ZNSt15__exception_ptr13exception_ptraSEOS0_.exit26
  call void @_ZNSt15__exception_ptr13exception_ptr10_M_releaseEv(ptr noundef nonnull align 8 dereferenceable(8) %8) #16
  br label %_ZNSt15__exception_ptr13exception_ptrD2Ev.exit28

_ZNSt15__exception_ptr13exception_ptrD2Ev.exit28: ; preds = %_ZNSt15__exception_ptr13exception_ptraSEOS0_.exit26.thread, %_ZNSt15__exception_ptr13exception_ptraSEOS0_.exit26, %46
  call void @_ZNSt13runtime_errorD1Ev(ptr noundef nonnull align 8 dereferenceable(16) %9) #16
  call void @llvm.lifetime.end.p0(i64 8, ptr nonnull %8) #16
  call void @__cxa_end_catch()
  br label %51

47:                                               ; preds = %40
  %48 = landingpad { ptr, i32 }
          cleanup
  call void @llvm.lifetime.end.p0(i64 8, ptr nonnull %8) #16
  invoke void @__cxa_end_catch()
          to label %52 unwind label %53

49:                                               ; preds = %22
  %50 = landingpad { ptr, i32 }
          cleanup
  call void @llvm.lifetime.end.p0(i64 8, ptr nonnull %12) #16
  invoke void @__cxa_end_catch()
          to label %52 unwind label %53

51:                                               ; preds = %15, %_ZNSt15__exception_ptr13exception_ptrD2Ev.exit28, %_ZNSt15__exception_ptr13exception_ptrD2Ev.exit22, %_ZNSt15__exception_ptr13exception_ptrD2Ev.exit
  %.0 = phi i32 [ 0, %15 ], [ -2, %_ZNSt15__exception_ptr13exception_ptrD2Ev.exit ], [ -4, %_ZNSt15__exception_ptr13exception_ptrD2Ev.exit22 ], [ -1, %_ZNSt15__exception_ptr13exception_ptrD2Ev.exit28 ]
  ret i32 %.0

52:                                               ; preds = %49, %47
  %.pn = phi { ptr, i32 } [ %48, %47 ], [ %50, %49 ]
  resume { ptr, i32 } %.pn

53:                                               ; preds = %49, %47
  %54 = landingpad { ptr, i32 }
          catch ptr null
  %55 = extractvalue { ptr, i32 } %54, 0
  call void @__clang_call_terminate(ptr %55) #17
  unreachable
}